target datalayout = "e-m:e-p270:32:32-p271:32:32-p272:64:64-i64:64-i128:128-f80:128-n8:16:32:64-S128"
target triple = "x86_64-pc-linux-gnu"

%struct.H5FD_multi_t = type { %struct.H5FD_t, %struct.H5FD_multi_fapl_t, [7 x i64], [7 x ptr], [7 x i64], i32, ptr }
%struct.H5FD_t = type { i64, ptr, i64, i32, i64, i64, i64, i64, i64, i8 }
%struct.H5FD_multi_fapl_t = type { [7 x i32], [7 x i64], [7 x ptr], [7 x i64], i8 }

; Function Attrs: nounwind uwtable
define internal i32 @H5FD_multi_write(ptr noundef %0, i32 noundef %1, i64 noundef %2, i64 noundef %3, i64 noundef %4, ptr noundef %5) #0 {
  %7 = alloca ptr, align 8
  %8 = alloca i32, align 4
  %9 = alloca i64, align 8
  %10 = alloca i64, align 8
  %11 = alloca i64, align 8
  %12 = alloca ptr, align 8
  %13 = alloca ptr, align 8
  %14 = alloca i32, align 4
  %15 = alloca i32, align 4
  %16 = alloca i32, align 4
  %17 = alloca i64, align 8
  store ptr %0, ptr %7, align 8, !tbaa !3
  store i32 %1, ptr %8, align 4, !tbaa !10
  store i64 %2, ptr %9, align 8, !tbaa !12
  store i64 %3, ptr %10, align 8, !tbaa !12
  store i64 %4, ptr %11, align 8, !tbaa !12
  store ptr %5, ptr %12, align 8, !tbaa !40
  call void @llvm.lifetime.start.p0(i64 8, ptr %13) #9
  %18 = load ptr, ptr %7, align 8, !tbaa !3
  store ptr %18, ptr %13, align 8, !tbaa !8
  call void @llvm.lifetime.start.p0(i64 4, ptr %14) #9
  call void @llvm.lifetime.start.p0(i64 4, ptr %15) #9
  call void @llvm.lifetime.start.p0(i64 4, ptr %16) #9
  store i32 0, ptr %16, align 4, !tbaa !10
  call void @llvm.lifetime.start.p0(i64 8, ptr %17) #9
  store i64 0, ptr %17, align 8, !tbaa !12
  %19 = call i32 @H5Eclear2(i64 noundef 0)
  store i32 1, ptr %14, align 4, !tbaa !10
  br label %20

20:                                               ; preds = %66, %6
  %21 = load i32, ptr %14, align 4, !tbaa !10
  %22 = icmp slt i32 %21, 7
  br i1 %22, label %23, label %69

23:                                               ; preds = %20
  %24 = load ptr, ptr %13, align 8, !tbaa !8
  %25 = getelementptr inbounds nuw %struct.H5FD_multi_t, ptr %24, i32 0, i32 1
  %26 = getelementptr inbounds nuw %struct.H5FD_multi_fapl_t, ptr %25, i32 0, i32 0
  %27 = load i32, ptr %14, align 4, !tbaa !10
  %28 = sext i32 %27 to i64
  %29 = getelementptr inbounds [7 x i32], ptr %26, i64 0, i64 %28
  %30 = load i32, ptr %29, align 4, !tbaa !10
  store i32 %30, ptr %15, align 4, !tbaa !10
  %31 = load i32, ptr %15, align 4, !tbaa !10
  %32 = icmp eq i32 0, %31
  br i1 %32, label %33, label %35

33:                                               ; preds = %23
  %34 = load i32, ptr %14, align 4, !tbaa !10
  store i32 %34, ptr %15, align 4, !tbaa !10
  br label %35

35:                                               ; preds = %33, %23
  %36 = load ptr, ptr %13, align 8, !tbaa !8
  %37 = getelementptr inbounds nuw %struct.H5FD_multi_t, ptr %36, i32 0, i32 1
  %38 = getelementptr inbounds nuw %struct.H5FD_multi_fapl_t, ptr %37, i32 0, i32 3
  %39 = load i32, ptr %15, align 4, !tbaa !10
  %40 = sext i32 %39 to i64
  %41 = getelementptr inbounds [7 x i64], ptr %38, i64 0, i64 %40
  %42 = load i64, ptr %41, align 8, !tbaa !12
  %43 = load i64, ptr %10, align 8, !tbaa !12
  %44 = icmp ugt i64 %42, %43
  br i1 %44, label %45, label %46

45:                                               ; preds = %35
  br label %66

46:                                               ; preds = %35
  %47 = load ptr, ptr %13, align 8, !tbaa !8
  %48 = getelementptr inbounds nuw %struct.H5FD_multi_t, ptr %47, i32 0, i32 1
  %49 = getelementptr inbounds nuw %struct.H5FD_multi_fapl_t, ptr %48, i32 0, i32 3
  %50 = load i32, ptr %15, align 4, !tbaa !10
  %51 = sext i32 %50 to i64
  %52 = getelementptr inbounds [7 x i64], ptr %49, i64 0, i64 %51
  %53 = load i64, ptr %52, align 8, !tbaa !12
  %54 = load i64, ptr %17, align 8, !tbaa !12
  %55 = icmp uge i64 %53, %54
  br i1 %55, label %56, label %65

56:                                               ; preds = %46
  %57 = load ptr, ptr %13, align 8, !tbaa !8
  %58 = getelementptr inbounds nuw %struct.H5FD_multi_t, ptr %57, i32 0, i32 1
  %59 = getelementptr inbounds nuw %struct.H5FD_multi_fapl_t, ptr %58, i32 0, i32 3
  %60 = load i32, ptr %15, align 4, !tbaa !10
  %61 = sext i32 %60 to i64
  %62 = getelementptr inbounds [7 x i64], ptr %59, i64 0, i64 %61
  %63 = load i64, ptr %62, align 8, !tbaa !12
  store i64 %63, ptr %17, align 8, !tbaa !12
  %64 = load i32, ptr %15, align 4, !tbaa !10
  store i32 %64, ptr %16, align 4, !tbaa !10
  br label %65

65:                                               ; preds = %56, %46
  br label %66

66:                                               ; preds = %65, %45
  %67 = load i32, ptr %14, align 4, !tbaa !10
  %68 = add nsw i32 %67, 1
  store i32 %68, ptr %14, align 4, !tbaa !10
  br label %20, !llvm.loop !65

69:                                               ; preds = %20
  %70 = load ptr, ptr %13, align 8, !tbaa !8
  %71 = getelementptr inbounds nuw %struct.H5FD_multi_t, ptr %70, i32 0, i32 3
  %72 = load i32, ptr %16, align 4, !tbaa !10
  %73 = sext i32 %72 to i64
  %74 = getelementptr inbounds [7 x ptr], ptr %71, i64 0, i64 %73
  %75 = load ptr, ptr %74, align 8, !tbaa !3
  %76 = load i32, ptr %8, align 4, !tbaa !10
  %77 = load i64, ptr %9, align 8, !tbaa !12
  %78 = load i64, ptr %10, align 8, !tbaa !12
  %79 = load i64, ptr %17, align 8, !tbaa !12
  %80 = sub i64 %78, %79
  %81 = load i64, ptr %11, align 8, !tbaa !12
  %82 = load ptr, ptr %12, align 8, !tbaa !40
  %83 = call i32 @H5FDwrite(ptr noundef %75, i32 noundef %76, i64 noundef %77, i64 noundef %80, i64 noundef %81, ptr noundef %82)
  call void @llvm.lifetime.end.p0(i64 8, ptr %17) #9
  call void @llvm.lifetime.end.p0(i64 4, ptr %16) #9
  call void @llvm.lifetime.end.p0(i64 4, ptr %15) #9
  call void @llvm.lifetime.end.p0(i64 4, ptr %14) #9
  call void @llvm.lifetime.end.p0(i64 8, ptr %13) #9
  ret i32 %83
}