; Function Attrs: nounwind uwtable
define internal i32 @H5FD_multi_write(ptr noundef readonly captures(none) %0, i32 noundef %1, i64 noundef %2, i64 noundef %3, i64 noundef %4, ptr noundef %5) #0 {
  %7 = tail call i32 @H5Eclear2(i64 noundef 0) #15
  %8 = getelementptr inbounds nuw i8, ptr %0, i64 80
  %9 = getelementptr inbounds nuw i8, ptr %0, i64 224
  br label %10

10:                                               ; preds = %6, %10
  %indvars.iv = phi i64 [ 1, %6 ], [ %indvars.iv.next, %10 ]
  %.031 = phi i64 [ 0, %6 ], [ %.1, %10 ]
  %.02330 = phi i32 [ 0, %6 ], [ %.124, %10 ]
  %11 = getelementptr inbounds nuw [7 x i32], ptr %8, i64 0, i64 %indvars.iv
  %12 = load i32, ptr %11, align 4, !tbaa !3
  %13 = icmp eq i32 %12, 0
  %14 = trunc nuw nsw i64 %indvars.iv to i32
  %spec.select = select i1 %13, i32 %14, i32 %12
  %15 = sext i32 %spec.select to i64
  %16 = getelementptr inbounds [7 x i64], ptr %9, i64 0, i64 %15
  %17 = load i64, ptr %16, align 8, !tbaa !23
  %18 = icmp ugt i64 %17, %3
  %.not = icmp ult i64 %17, %.031
  %or.cond = select i1 %18, i1 true, i1 %.not
  %.124 = select i1 %or.cond, i32 %.02330, i32 %spec.select
  %.1 = select i1 %or.cond, i64 %.031, i64 %17
  %indvars.iv.next = add nuw nsw i64 %indvars.iv, 1
  %exitcond.not = icmp eq i64 %indvars.iv.next, 7
  br i1 %exitcond.not, label %19, label %10, !llvm.loop !59

19:                                               ; preds = %10
  %20 = getelementptr inbounds nuw i8, ptr %0, i64 344
  %21 = sext i32 %.124 to i64
  %22 = getelementptr inbounds [7 x ptr], ptr %20, i64 0, i64 %21
  %23 = load ptr, ptr %22, align 8, !tbaa !15
  %24 = sub i64 %3, %.1
  %25 = tail call i32 @H5FDwrite(ptr noundef %23, i32 noundef %1, i64 noundef %2, i64 noundef %24, i64 noundef %4, ptr noundef %5) #15
  ret i32 %25
}